target datalayout = "e-m:e-p270:32:32-p271:32:32-p272:64:64-i64:64-i128:128-f80:128-n8:16:32:64-S128"
target triple = "x86_64-pc-linux-gnu"

%"class.std::filesystem::__cxx11::path" = type { %"class.std::__cxx11::basic_string", %"struct.std::filesystem::__cxx11::path::_List" }
%"class.std::__cxx11::basic_string" = type { %"struct.std::__cxx11::basic_string<char>::_Alloc_hider", i64, %union.anon }
%"struct.std::__cxx11::basic_string<char>::_Alloc_hider" = type { ptr }
%union.anon = type { i64, [8 x i8] }
%"struct.std::filesystem::__cxx11::path::_List" = type { %"class.std::unique_ptr" }
%"class.std::unique_ptr" = type { %"struct.std::__uniq_ptr_data" }
%"struct.std::__uniq_ptr_data" = type { %"class.std::__uniq_ptr_impl" }
%"class.std::__uniq_ptr_impl" = type { %"class.std::tuple" }
%"class.std::tuple" = type { %"struct.std::_Tuple_impl" }
%"struct.std::_Tuple_impl" = type { %"struct.std::_Head_base.1" }
%"struct.std::_Head_base.1" = type { ptr }

@.str.4 = private unnamed_addr constant [122 x i8] c"generated/home/dtcxzyw/WorkSpace/Projects/compilers/llvm-opt-benchmark/bench/gromacs/gromacs/src/gromacs/fileio/espio.cpp\00", align 1
@.str.15 = private unnamed_addr constant [37 x i8] c"Expected '{' after '%s' in file '%s'\00", align 1

; Function Attrs: mustprogress nounwind uwtable
define linkonce_odr void @_ZNSt15__new_allocatorIcE10deallocateEPcm(ptr noundef nonnull align 1 dereferenceable(1) %0, ptr noundef %1, i64 noundef %2) #7 comdat align 2 {
  %4 = alloca ptr, align 8
  %5 = alloca ptr, align 8
  %6 = alloca i64, align 8
  store ptr %0, ptr %4, align 8, !tbaa !84
  store ptr %1, ptr %5, align 8, !tbaa !18
  store i64 %2, ptr %6, align 8, !tbaa !78
  %7 = load ptr, ptr %5, align 8, !tbaa !18
  %8 = load i64, ptr %6, align 8, !tbaa !78
  %9 = mul i64 %8, 1
  call void @_ZdlPvm(ptr noundef %7, i64 noundef %9) #17
  ret void
}

; Function Attrs: mustprogress nounwind uwtable
define linkonce_odr noundef ptr @_ZNSt19__ptr_traits_ptr_toIPKcS0_Lb0EE10pointer_toERS0_(ptr noundef nonnull align 1 dereferenceable(1) %0) #7 comdat align 2 {
  %2 = alloca ptr, align 8
  store ptr %0, ptr %2, align 8, !tbaa !18
  %3 = load ptr, ptr %2, align 8, !tbaa !18
  ret ptr %3
}

; Function Attrs: mustprogress uwtable
define linkonce_odr void @_ZNSt16allocator_traitsISaIcEE10deallocateERS0_Pcm(ptr noundef nonnull align 1 dereferenceable(1) %0, ptr noundef %1, i64 noundef %2) #0 comdat align 2 {
  %4 = alloca ptr, align 8
  %5 = alloca ptr, align 8
  %6 = alloca i64, align 8
  store ptr %0, ptr %4, align 8, !tbaa !80
  store ptr %1, ptr %5, align 8, !tbaa !18
  store i64 %2, ptr %6, align 8, !tbaa !78
  %7 = load ptr, ptr %4, align 8, !tbaa !80
  %8 = load ptr, ptr %5, align 8, !tbaa !18
  %9 = load i64, ptr %6, align 8, !tbaa !78
  call void @_ZNSt15__new_allocatorIcE10deallocateEPcm(ptr noundef nonnull align 1 dereferenceable(1) %7, ptr noundef %8, i64 noundef %9)
  ret void
}

; Function Attrs: mustprogress nounwind uwtable
define available_externally noundef nonnull align 1 dereferenceable(1) ptr @_ZNSt7__cxx1112basic_stringIcSt11char_traitsIcESaIcEE16_M_get_allocatorEv(ptr noundef nonnull align 8 dereferenceable(32) %0) #7 align 2 {
  %2 = alloca ptr, align 8
  store ptr %0, ptr %2, align 8, !tbaa !75
  %3 = load ptr, ptr %2, align 8
  %4 = getelementptr inbounds nuw %"class.std::__cxx11::basic_string", ptr %3, i32 0, i32 0
  ret ptr %4
}

; Function Attrs: mustprogress nounwind uwtable
define available_externally noundef ptr @_ZNKSt7__cxx1112basic_stringIcSt11char_traitsIcESaIcEE13_M_local_dataEv(ptr noundef nonnull align 8 dereferenceable(32) %0) #7 align 2 {
  %2 = alloca ptr, align 8
  store ptr %0, ptr %2, align 8, !tbaa !75
  %3 = load ptr, ptr %2, align 8
  %4 = getelementptr inbounds nuw %"class.std::__cxx11::basic_string", ptr %3, i32 0, i32 2
  %5 = getelementptr inbounds [16 x i8], ptr %4, i64 0, i64 0
  %6 = call noundef ptr @_ZNSt19__ptr_traits_ptr_toIPKcS0_Lb0EE10pointer_toERS0_(ptr noundef nonnull align 1 dereferenceable(1) %5) #13
  ret ptr %6
}

; Function Attrs: mustprogress nounwind uwtable
define available_externally void @_ZNSt7__cxx1112basic_stringIcSt11char_traitsIcESaIcEE10_M_destroyEm(ptr noundef nonnull align 8 dereferenceable(32) %0, i64 noundef %1) #7 align 2 personality ptr @__gxx_personality_v0 {
  %3 = alloca ptr, align 8
  %4 = alloca i64, align 8
  store ptr %0, ptr %3, align 8, !tbaa !75
  store i64 %1, ptr %4, align 8, !tbaa !78
  %5 = load ptr, ptr %3, align 8
  %6 = invoke noundef nonnull align 1 dereferenceable(1) ptr @_ZNSt7__cxx1112basic_stringIcSt11char_traitsIcESaIcEE16_M_get_allocatorEv(ptr noundef nonnull align 8 dereferenceable(32) %5)
          to label %7 unwind label %12

7:                                                ; preds = %2
  %8 = call noundef ptr @_ZNKSt7__cxx1112basic_stringIcSt11char_traitsIcESaIcEE7_M_dataEv(ptr noundef nonnull align 8 dereferenceable(32) %5)
  %9 = load i64, ptr %4, align 8, !tbaa !78
  %10 = add i64 %9, 1
  invoke void @_ZNSt16allocator_traitsISaIcEE10deallocateERS0_Pcm(ptr noundef nonnull align 1 dereferenceable(1) %6, ptr noundef %8, i64 noundef %10)
          to label %11 unwind label %12

11:                                               ; preds = %7
  ret void

12:                                               ; preds = %7, %2
  %13 = landingpad { ptr, i32 }
          catch ptr null
  %14 = extractvalue { ptr, i32 } %13, 0
  call void @__clang_call_terminate(ptr %14) #16
  unreachable
}

; Function Attrs: mustprogress uwtable
define available_externally noundef zeroext i1 @_ZNKSt7__cxx1112basic_stringIcSt11char_traitsIcESaIcEE11_M_is_localEv(ptr noundef nonnull align 8 dereferenceable(32) %0) #0 align 2 {
  %2 = alloca i1, align 1
  %3 = alloca ptr, align 8
  store ptr %0, ptr %3, align 8, !tbaa !75
  %4 = load ptr, ptr %3, align 8
  %5 = call noundef ptr @_ZNKSt7__cxx1112basic_stringIcSt11char_traitsIcESaIcEE7_M_dataEv(ptr noundef nonnull align 8 dereferenceable(32) %4)
  %6 = call noundef ptr @_ZNKSt7__cxx1112basic_stringIcSt11char_traitsIcESaIcEE13_M_local_dataEv(ptr noundef nonnull align 8 dereferenceable(32) %4)
  %7 = icmp eq ptr %5, %6
  br i1 %7, label %8, label %14

8:                                                ; preds = %1
  %9 = getelementptr inbounds nuw %"class.std::__cxx11::basic_string", ptr %4, i32 0, i32 1
  %10 = load i64, ptr %9, align 8, !tbaa !103
  %11 = icmp ugt i64 %10, 15
  br i1 %11, label %12, label %13

12:                                               ; preds = %8
  unreachable

13:                                               ; preds = %8
  store i1 true, ptr %2, align 1
  br label %15

14:                                               ; preds = %1
  store i1 false, ptr %2, align 1
  br label %15

15:                                               ; preds = %14, %13
  %16 = load i1, ptr %2, align 1
  ret i1 %16
}

; Function Attrs: noinline noreturn nounwind uwtable
define linkonce_odr hidden void @__clang_call_terminate(ptr noundef %0) #10 comdat {
  %2 = call ptr @__cxa_begin_catch(ptr %0) #13
  call void @_ZSt9terminatev() #16
  unreachable
}

; Function Attrs: mustprogress nounwind uwtable
define linkonce_odr void @_ZNSt15__new_allocatorIcED2Ev(ptr noundef nonnull align 1 dereferenceable(1) %0) unnamed_addr #7 comdat align 2 {
  %2 = alloca ptr, align 8
  store ptr %0, ptr %2, align 8, !tbaa !84
  ret void
}

; Function Attrs: mustprogress uwtable
define available_externally void @_ZNSt7__cxx1112basic_stringIcSt11char_traitsIcESaIcEE10_M_disposeEv(ptr noundef nonnull align 8 dereferenceable(32) %0) #0 align 2 {
  %2 = alloca ptr, align 8
  store ptr %0, ptr %2, align 8, !tbaa !75
  %3 = load ptr, ptr %2, align 8
  %4 = call noundef zeroext i1 @_ZNKSt7__cxx1112basic_stringIcSt11char_traitsIcESaIcEE11_M_is_localEv(ptr noundef nonnull align 8 dereferenceable(32) %3)
  br i1 %4, label %8, label %5

5:                                                ; preds = %1
  %6 = getelementptr inbounds nuw %"class.std::__cxx11::basic_string", ptr %3, i32 0, i32 2
  %7 = load i64, ptr %6, align 8, !tbaa !41
  call void @_ZNSt7__cxx1112basic_stringIcSt11char_traitsIcESaIcEE10_M_destroyEm(ptr noundef nonnull align 8 dereferenceable(32) %3, i64 noundef %7) #13
  br label %8

8:                                                ; preds = %5, %1
  ret void
}

; Function Attrs: mustprogress nounwind uwtable
define available_externally noundef ptr @_ZNKSt7__cxx1112basic_stringIcSt11char_traitsIcESaIcEE7_M_dataEv(ptr noundef nonnull align 8 dereferenceable(32) %0) #7 align 2 {
  %2 = alloca ptr, align 8
  store ptr %0, ptr %2, align 8, !tbaa !75
  %3 = load ptr, ptr %2, align 8
  %4 = getelementptr inbounds nuw %"class.std::__cxx11::basic_string", ptr %3, i32 0, i32 0
  %5 = getelementptr inbounds nuw %"struct.std::__cxx11::basic_string<char>::_Alloc_hider", ptr %4, i32 0, i32 0
  %6 = load ptr, ptr %5, align 8, !tbaa !99
  ret ptr %6
}

; Function Attrs: mustprogress nounwind uwtable
define available_externally void @_ZNSt7__cxx1112basic_stringIcSt11char_traitsIcESaIcEED2Ev(ptr noundef nonnull align 8 dereferenceable(32) %0) unnamed_addr #7 align 2 personality ptr @__gxx_personality_v0 {
  %2 = alloca ptr, align 8
  store ptr %0, ptr %2, align 8, !tbaa !75
  %3 = load ptr, ptr %2, align 8
  invoke void @_ZNSt7__cxx1112basic_stringIcSt11char_traitsIcESaIcEE10_M_disposeEv(ptr noundef nonnull align 8 dereferenceable(32) %3)
          to label %4 unwind label %6

4:                                                ; preds = %1
  %5 = getelementptr inbounds nuw %"class.std::__cxx11::basic_string", ptr %3, i32 0, i32 0
  call void @_ZNSt15__new_allocatorIcED2Ev(ptr noundef nonnull align 8 dereferenceable(8) %5) #13
  ret void

6:                                                ; preds = %1
  %7 = landingpad { ptr, i32 }
          catch ptr null
  %8 = extractvalue { ptr, i32 } %7, 0
  call void @__clang_call_terminate(ptr %8) #16
  unreachable
}

; Function Attrs: mustprogress nounwind uwtable
define available_externally noundef ptr @_ZNKSt7__cxx1112basic_stringIcSt11char_traitsIcESaIcEE5c_strEv(ptr noundef nonnull align 8 dereferenceable(32) %0) #7 align 2 {
  %2 = alloca ptr, align 8
  store ptr %0, ptr %2, align 8, !tbaa !75
  %3 = load ptr, ptr %2, align 8
  %4 = call noundef ptr @_ZNKSt7__cxx1112basic_stringIcSt11char_traitsIcESaIcEE7_M_dataEv(ptr noundef nonnull align 8 dereferenceable(32) %3)
  ret ptr %4
}

; Function Attrs: mustprogress uwtable
define internal noundef i32 @_ZL17get_espresso_wordP8_IO_FILEPc(ptr noundef %0, ptr noundef %1) #0 {
  %3 = alloca ptr, align 8
  %4 = alloca ptr, align 8
  %5 = alloca i32, align 4
  %6 = alloca i32, align 4
  %7 = alloca i32, align 4
  store ptr %0, ptr %3, align 8, !tbaa !33
  store ptr %1, ptr %4, align 8, !tbaa !18
  call void @llvm.lifetime.start.p0(i64 4, ptr %5) #13
  call void @llvm.lifetime.start.p0(i64 4, ptr %6) #13
  call void @llvm.lifetime.start.p0(i64 4, ptr %7) #13
  store i32 0, ptr %5, align 4, !tbaa !36
  store i32 0, ptr %6, align 4, !tbaa !36
  br label %8

8:                                                ; preds = %71, %2
  %9 = load ptr, ptr %3, align 8, !tbaa !33
  %10 = call i32 @fgetc(ptr noundef %9)
  store i32 %10, ptr %7, align 4, !tbaa !36
  %11 = load i32, ptr %7, align 4, !tbaa !36
  %12 = icmp ne i32 %11, -1
  br i1 %12, label %13, label %64

13:                                               ; preds = %8
  %14 = load i32, ptr %7, align 4, !tbaa !36
  %15 = icmp eq i32 %14, 32
  br i1 %15, label %22, label %16

16:                                               ; preds = %13
  %17 = load i32, ptr %7, align 4, !tbaa !36
  %18 = icmp eq i32 %17, 10
  br i1 %18, label %22, label %19

19:                                               ; preds = %16
  %20 = load i32, ptr %7, align 4, !tbaa !36
  %21 = icmp eq i32 %20, 9
  br i1 %21, label %22, label %27

22:                                               ; preds = %19, %16, %13
  %23 = load i32, ptr %6, align 4, !tbaa !36
  %24 = icmp sgt i32 %23, 0
  br i1 %24, label %25, label %26

25:                                               ; preds = %22
  store i32 1, ptr %5, align 4, !tbaa !36
  br label %26

26:                                               ; preds = %25, %22
  br label %63

27:                                               ; preds = %19
  %28 = load i32, ptr %7, align 4, !tbaa !36
  %29 = icmp eq i32 %28, 123
  br i1 %29, label %30, label %40

30:                                               ; preds = %27
  %31 = load i32, ptr %6, align 4, !tbaa !36
  %32 = icmp eq i32 %31, 0
  br i1 %32, label %33, label %39

33:                                               ; preds = %30
  %34 = load ptr, ptr %4, align 8, !tbaa !18
  %35 = load i32, ptr %6, align 4, !tbaa !36
  %36 = add nsw i32 %35, 1
  store i32 %36, ptr %6, align 4, !tbaa !36
  %37 = sext i32 %35 to i64
  %38 = getelementptr inbounds i8, ptr %34, i64 %37
  store i8 123, ptr %38, align 1, !tbaa !41
  br label %39

39:                                               ; preds = %33, %30
  store i32 2, ptr %5, align 4, !tbaa !36
  br label %62

40:                                               ; preds = %27
  %41 = load i32, ptr %7, align 4, !tbaa !36
  %42 = icmp eq i32 %41, 125
  br i1 %42, label %43, label %53

43:                                               ; preds = %40
  %44 = load i32, ptr %6, align 4, !tbaa !36
  %45 = icmp eq i32 %44, 0
  br i1 %45, label %46, label %52

46:                                               ; preds = %43
  %47 = load ptr, ptr %4, align 8, !tbaa !18
  %48 = load i32, ptr %6, align 4, !tbaa !36
  %49 = add nsw i32 %48, 1
  store i32 %49, ptr %6, align 4, !tbaa !36
  %50 = sext i32 %48 to i64
  %51 = getelementptr inbounds i8, ptr %47, i64 %50
  store i8 125, ptr %51, align 1, !tbaa !41
  br label %52

52:                                               ; preds = %46, %43
  store i32 3, ptr %5, align 4, !tbaa !36
  br label %61

53:                                               ; preds = %40
  %54 = load i32, ptr %7, align 4, !tbaa !36
  %55 = trunc i32 %54 to i8
  %56 = load ptr, ptr %4, align 8, !tbaa !18
  %57 = load i32, ptr %6, align 4, !tbaa !36
  %58 = add nsw i32 %57, 1
  store i32 %58, ptr %6, align 4, !tbaa !36
  %59 = sext i32 %57 to i64
  %60 = getelementptr inbounds i8, ptr %56, i64 %59
  store i8 %55, ptr %60, align 1, !tbaa !41
  br label %61

61:                                               ; preds = %53, %52
  br label %62

62:                                               ; preds = %61, %39
  br label %63

63:                                               ; preds = %62, %26
  br label %64

64:                                               ; preds = %63, %8
  br label %65

65:                                               ; preds = %64
  %66 = load i32, ptr %7, align 4, !tbaa !36
  %67 = icmp ne i32 %66, -1
  br i1 %67, label %68, label %71

68:                                               ; preds = %65
  %69 = load i32, ptr %5, align 4, !tbaa !36
  %70 = icmp eq i32 %69, 0
  br label %71

71:                                               ; preds = %68, %65
  %72 = phi i1 [ false, %65 ], [ %70, %68 ]
  br i1 %72, label %8, label %73, !llvm.loop !72

73:                                               ; preds = %71
  %74 = load ptr, ptr %4, align 8, !tbaa !18
  %75 = load i32, ptr %6, align 4, !tbaa !36
  %76 = sext i32 %75 to i64
  %77 = getelementptr inbounds i8, ptr %74, i64 %76
  store i8 0, ptr %77, align 1, !tbaa !41
  %78 = load i32, ptr %5, align 4, !tbaa !36
  call void @llvm.lifetime.end.p0(i64 4, ptr %7) #13
  call void @llvm.lifetime.end.p0(i64 4, ptr %6) #13
  call void @llvm.lifetime.end.p0(i64 4, ptr %5) #13
  ret i32 %78
}

; Function Attrs: mustprogress uwtable
define internal noundef i32 @_ZL22check_open_parenthesisP8_IO_FILEiRKNSt10filesystem7__cxx114pathEPKc(ptr noundef %0, i32 noundef %1, ptr noundef nonnull align 8 dereferenceable(40) %2, ptr noundef %3) #0 personality ptr @__gxx_personality_v0 {
  %5 = alloca ptr, align 8
  %6 = alloca i32, align 4
  %7 = alloca ptr, align 8
  %8 = alloca ptr, align 8
  %9 = alloca i32, align 4
  %10 = alloca [4096 x i8], align 16
  %11 = alloca %"class.std::filesystem::__cxx11::path", align 8
  %12 = alloca %"class.std::__cxx11::basic_string", align 8
  %13 = alloca ptr, align 8
  %14 = alloca i32, align 4
  store ptr %0, ptr %5, align 8, !tbaa !33
  store i32 %1, ptr %6, align 4, !tbaa !36
  store ptr %2, ptr %7, align 8, !tbaa !4
  store ptr %3, ptr %8, align 8, !tbaa !18
  call void @llvm.lifetime.start.p0(i64 4, ptr %9) #13
  call void @llvm.lifetime.start.p0(i64 4096, ptr %10) #13
  store i32 0, ptr %9, align 4, !tbaa !36
  %15 = load i32, ptr %6, align 4, !tbaa !36
  %16 = icmp eq i32 %15, 2
  br i1 %16, label %17, label %20

17:                                               ; preds = %4
  %18 = load i32, ptr %9, align 4, !tbaa !36
  %19 = add nsw i32 %18, 1
  store i32 %19, ptr %9, align 4, !tbaa !36
  br label %45

20:                                               ; preds = %4
  %21 = load ptr, ptr %5, align 8, !tbaa !33
  %22 = getelementptr inbounds [4096 x i8], ptr %10, i64 0, i64 0
  %23 = call noundef i32 @_ZL17get_espresso_wordP8_IO_FILEPc(ptr noundef %21, ptr noundef %22)
  store i32 %23, ptr %6, align 4, !tbaa !36
  %24 = load i32, ptr %6, align 4, !tbaa !36
  %25 = icmp eq i32 %24, 2
  br i1 %25, label %26, label %29

26:                                               ; preds = %20
  %27 = load i32, ptr %9, align 4, !tbaa !36
  %28 = add nsw i32 %27, 1
  store i32 %28, ptr %9, align 4, !tbaa !36
  br label %44

29:                                               ; preds = %20
  call void @llvm.lifetime.start.p0(i64 40, ptr %11) #13
  call void @_ZNSt10filesystem7__cxx114pathC2IA122_cS1_EERKT_NS1_6formatE(ptr noundef nonnull align 8 dereferenceable(40) %11, ptr noundef nonnull align 1 dereferenceable(122) @.str.4, i8 noundef zeroext 2)
  %30 = load ptr, ptr %8, align 8, !tbaa !18
  call void @llvm.lifetime.start.p0(i64 32, ptr %12) #13
  %31 = load ptr, ptr %7, align 8, !tbaa !4
  invoke void @_ZNKSt10filesystem7__cxx114path6stringEv(ptr dead_on_unwind writable sret(%"class.std::__cxx11::basic_string") align 8 %12, ptr noundef nonnull align 8 dereferenceable(40) %31)
          to label %32 unwind label %35

32:                                               ; preds = %29
  %33 = call noundef ptr @_ZNKSt7__cxx1112basic_stringIcSt11char_traitsIcESaIcEE5c_strEv(ptr noundef nonnull align 8 dereferenceable(32) %12) #13
  invoke void (i32, ptr, i32, ptr, ...) @_Z9gmx_fataliRKNSt10filesystem7__cxx114pathEiPKcz(i32 noundef 0, ptr noundef nonnull align 8 dereferenceable(40) %11, i32 noundef 121, ptr noundef @.str.15, ptr noundef %30, ptr noundef %33) #15
          to label %34 unwind label %39

34:                                               ; preds = %32
  unreachable

35:                                               ; preds = %29
  %36 = landingpad { ptr, i32 }
          cleanup
  %37 = extractvalue { ptr, i32 } %36, 0
  store ptr %37, ptr %13, align 8
  %38 = extractvalue { ptr, i32 } %36, 1
  store i32 %38, ptr %14, align 4
  br label %43

39:                                               ; preds = %32
  %40 = landingpad { ptr, i32 }
          cleanup
  %41 = extractvalue { ptr, i32 } %40, 0
  store ptr %41, ptr %13, align 8
  %42 = extractvalue { ptr, i32 } %40, 1
  store i32 %42, ptr %14, align 4
  call void @_ZNSt7__cxx1112basic_stringIcSt11char_traitsIcESaIcEED2Ev(ptr noundef nonnull align 8 dereferenceable(32) %12) #13
  br label %43

43:                                               ; preds = %39, %35
  call void @llvm.lifetime.end.p0(i64 32, ptr %12) #13
  call void @_ZNSt10filesystem7__cxx114pathD2Ev(ptr noundef nonnull align 8 dereferenceable(40) %11) #13
  call void @llvm.lifetime.end.p0(i64 40, ptr %11) #13
  call void @llvm.lifetime.end.p0(i64 4096, ptr %10) #13
  call void @llvm.lifetime.end.p0(i64 4, ptr %9) #13
  br label %47

44:                                               ; preds = %26
  br label %45

45:                                               ; preds = %44, %17
  %46 = load i32, ptr %9, align 4, !tbaa !36
  call void @llvm.lifetime.end.p0(i64 4096, ptr %10) #13
  call void @llvm.lifetime.end.p0(i64 4, ptr %9) #13
  ret i32 %46

47:                                               ; preds = %43
  %48 = load ptr, ptr %13, align 8
  %49 = load i32, ptr %14, align 4
  %50 = insertvalue { ptr, i32 } poison, ptr %48, 0
  %51 = insertvalue { ptr, i32 } %50, i32 %49, 1
  resume { ptr, i32 } %51
}