; Function Attrs: mustprogress uwtable
define internal fastcc void @_ZL22check_open_parenthesisP8_IO_FILEiRKNSt10filesystem7__cxx114pathEPKc(ptr noundef captures(none) %0, i32 noundef range(i32 1, 0) %1, ptr noundef nonnull align 8 dereferenceable(40) %2, ptr noundef %3) unnamed_addr #0 personality ptr @__gxx_personality_v0 {
  %5 = alloca %"class.std::filesystem::__cxx11::path", align 8
  %6 = alloca %"class.std::__cxx11::basic_string", align 8
  %7 = icmp eq i32 %1, 2
  br i1 %7, label %_ZL17get_espresso_wordP8_IO_FILEPc.exit, label %.outer.i

.outer.i:                                         ; preds = %4, %.split.us
  %.024.ph.i = phi i32 [ %11, %.split.us ], [ 0, %4 ]
  %8 = icmp eq i32 %.024.ph.i, 0
  br i1 %8, label %.outer.i.split.us, label %.outer.i.split, !llvm.loop !9

.outer.i.split.us:                                ; preds = %.outer.i, %.outer.i.split.us.backedge
  %9 = tail call i32 @fgetc(ptr noundef %0)
  switch i32 %9, label %.split.us [
    i32 -1, label %.split15.us
    i32 32, label %.outer.i.split.us.backedge
    i32 10, label %.outer.i.split.us.backedge
    i32 9, label %.outer.i.split.us.backedge
    i32 123, label %_ZL17get_espresso_wordP8_IO_FILEPc.exit
    i32 125, label %.split15.us
  ]

.outer.i.split.us.backedge:                       ; preds = %.outer.i.split.us, %.outer.i.split.us, %.outer.i.split.us
  br label %.outer.i.split.us

.outer.i.split:                                   ; preds = %.outer.i
  %10 = tail call i32 @fgetc(ptr noundef %0)
  switch i32 %10, label %.split.us [
    i32 -1, label %.split15.us
    i32 32, label %.split15.us
    i32 10, label %.split15.us
    i32 9, label %.split15.us
    i32 123, label %_ZL17get_espresso_wordP8_IO_FILEPc.exit
    i32 125, label %.split15.us
  ]

.split.us:                                        ; preds = %.outer.i.split.us, %.outer.i.split
  %11 = add i32 %.024.ph.i, 1
  br label %.outer.i, !llvm.loop !9

.split15.us:                                      ; preds = %.outer.i.split, %.outer.i.split, %.outer.i.split, %.outer.i.split, %.outer.i.split, %.outer.i.split.us, %.outer.i.split.us
  call void @llvm.lifetime.start.p0(i64 40, ptr nonnull %5) #17
  call void @_ZNSt10filesystem7__cxx114pathC2IA122_cS1_EERKT_NS1_6formatE(ptr noundef nonnull align 8 dereferenceable(40) %5, ptr noundef nonnull align 1 dereferenceable(122) @.str.4, i8 noundef zeroext 2)
  call void @llvm.lifetime.start.p0(i64 32, ptr nonnull %6) #17
  invoke void @_ZNKSt10filesystem7__cxx114path6stringEv(ptr dead_on_unwind nonnull writable sret(%"class.std::__cxx11::basic_string") align 8 %6, ptr noundef nonnull align 8 dereferenceable(40) %2)
          to label %12 unwind label %15

12:                                               ; preds = %.split15.us
  %13 = load ptr, ptr %6, align 8, !tbaa !55
  invoke void (i32, ptr, i32, ptr, ...) @_Z9gmx_fataliRKNSt10filesystem7__cxx114pathEiPKcz(i32 noundef 0, ptr noundef nonnull align 8 dereferenceable(40) %5, i32 noundef 121, ptr noundef nonnull @.str.15, ptr noundef %3, ptr noundef %13) #19
          to label %14 unwind label %17

14:                                               ; preds = %12
  unreachable

15:                                               ; preds = %.split15.us
  %16 = landingpad { ptr, i32 }
          cleanup
  br label %_ZNSt7__cxx1112basic_stringIcSt11char_traitsIcESaIcEED2Ev.exit

17:                                               ; preds = %12
  %18 = landingpad { ptr, i32 }
          cleanup
  %19 = load ptr, ptr %6, align 8, !tbaa !55
  %20 = getelementptr inbounds nuw i8, ptr %6, i64 16
  %21 = icmp eq ptr %19, %20
  br i1 %21, label %_ZNKSt7__cxx1112basic_stringIcSt11char_traitsIcESaIcEE11_M_is_localEv.exit.thread.i.i, label %_ZNKSt7__cxx1112basic_stringIcSt11char_traitsIcESaIcEE11_M_is_localEv.exit.i.i

_ZNKSt7__cxx1112basic_stringIcSt11char_traitsIcESaIcEE11_M_is_localEv.exit.thread.i.i: ; preds = %17
  %22 = getelementptr inbounds nuw i8, ptr %6, i64 8
  %23 = load i64, ptr %22, align 8, !tbaa !59
  %24 = icmp ult i64 %23, 16
  call void @llvm.assume(i1 %24)
  br label %_ZNSt7__cxx1112basic_stringIcSt11char_traitsIcESaIcEED2Ev.exit

_ZNKSt7__cxx1112basic_stringIcSt11char_traitsIcESaIcEE11_M_is_localEv.exit.i.i: ; preds = %17
  %25 = load i64, ptr %20, align 8, !tbaa !11
  %26 = add i64 %25, 1
  call void @_ZdlPvm(ptr noundef %19, i64 noundef %26) #20
  br label %_ZNSt7__cxx1112basic_stringIcSt11char_traitsIcESaIcEED2Ev.exit

_ZNSt7__cxx1112basic_stringIcSt11char_traitsIcESaIcEED2Ev.exit: ; preds = %_ZNKSt7__cxx1112basic_stringIcSt11char_traitsIcESaIcEE11_M_is_localEv.exit.i.i, %_ZNKSt7__cxx1112basic_stringIcSt11char_traitsIcESaIcEE11_M_is_localEv.exit.thread.i.i, %15
  %.pn = phi { ptr, i32 } [ %16, %15 ], [ %18, %_ZNKSt7__cxx1112basic_stringIcSt11char_traitsIcESaIcEE11_M_is_localEv.exit.thread.i.i ], [ %18, %_ZNKSt7__cxx1112basic_stringIcSt11char_traitsIcESaIcEE11_M_is_localEv.exit.i.i ]
  call void @llvm.lifetime.end.p0(i64 32, ptr nonnull %6) #17
  call void @_ZNSt10filesystem7__cxx114pathD2Ev(ptr noundef nonnull align 8 dereferenceable(40) %5) #17
  call void @llvm.lifetime.end.p0(i64 40, ptr nonnull %5) #17
  resume { ptr, i32 } %.pn

_ZL17get_espresso_wordP8_IO_FILEPc.exit:          ; preds = %.outer.i.split, %.outer.i.split.us, %4
  ret void
}